; ModuleID = '53/997.c'
source_filename = "53/997.c"
target datalayout = "e-m:e-p270:32:32-p271:32:32-p272:64:64-i64:64-f80:128-n8:16:32:64-S128"
target triple = "x86_64-pc-linux-gnu"

@.str = private unnamed_addr constant [3 x i8] c"%d\00", align 1
@.str.1 = private unnamed_addr constant [5 x i8] c"%d%s\00", align 1
@.str.2 = private unnamed_addr constant [2 x i8] c"\0A\00", align 1
@.str.3 = private unnamed_addr constant [2 x i8] c",\00", align 1

; Function Attrs: noinline nounwind uwtable
define dso_local i32 @isin(i32* %0, i32 %1, i32 %2) #0 {
  %4 = alloca i32, align 4
  %5 = alloca i32*, align 8
  %6 = alloca i32, align 4
  %7 = alloca i32, align 4
  %8 = alloca i32*, align 8
  store i32* %0, i32** %5, align 8
  store i32 %1, i32* %6, align 4
  store i32 %2, i32* %7, align 4
  %9 = load i32*, i32** %5, align 8
  store i32* %9, i32** %8, align 8
  br label %10

10:                                               ; preds = %24, %3
  %11 = load i32*, i32** %8, align 8
  %12 = load i32*, i32** %5, align 8
  %13 = load i32, i32* %6, align 4
  %14 = sext i32 %13 to i64
  %15 = getelementptr inbounds i32, i32* %12, i64 %14
  %16 = icmp ult i32* %11, %15
  br i1 %16, label %17, label %27

17:                                               ; preds = %10
  %18 = load i32*, i32** %8, align 8
  %19 = load i32, i32* %18, align 4
  %20 = load i32, i32* %7, align 4
  %21 = icmp eq i32 %19, %20
  br i1 %21, label %22, label %23

22:                                               ; preds = %17
  store i32 1, i32* %4, align 4
  br label %28

23:                                               ; preds = %17
  br label %24

24:                                               ; preds = %23
  %25 = load i32*, i32** %8, align 8
  %26 = getelementptr inbounds i32, i32* %25, i32 1
  store i32* %26, i32** %8, align 8
  br label %10

27:                                               ; preds = %10
  store i32 0, i32* %4, align 4
  br label %28

28:                                               ; preds = %27, %22
  %29 = load i32, i32* %4, align 4
  ret i32 %29
}

; Function Attrs: noinline nounwind uwtable
define dso_local void @main() #0 {
  %1 = alloca i32, align 4
  %2 = alloca [300 x i32], align 16
  %3 = alloca [300 x i32], align 16
  %4 = alloca i32, align 4
  %5 = alloca i32, align 4
  %6 = alloca i32, align 4
  %7 = alloca i32*, align 8
  %8 = call i32 (i8*, ...) @__isoc99_scanf(i8* getelementptr inbounds ([3 x i8], [3 x i8]* @.str, i64 0, i64 0), i32* %4)
  store i32 0, i32* %1, align 4
  br label %9

9:                                                ; preds = %19, %0
  %10 = load i32, i32* %1, align 4
  %11 = load i32, i32* %4, align 4
  %12 = icmp slt i32 %10, %11
  br i1 %12, label %13, label %22

13:                                               ; preds = %9
  %14 = getelementptr inbounds [300 x i32], [300 x i32]* %2, i64 0, i64 0
  %15 = load i32, i32* %1, align 4
  %16 = sext i32 %15 to i64
  %17 = getelementptr inbounds i32, i32* %14, i64 %16
  %18 = call i32 (i8*, ...) @__isoc99_scanf(i8* getelementptr inbounds ([3 x i8], [3 x i8]* @.str, i64 0, i64 0), i32* %17)
  br label %19

19:                                               ; preds = %13
  %20 = load i32, i32* %1, align 4
  %21 = add nsw i32 %20, 1
  store i32 %21, i32* %1, align 4
  br label %9

22:                                               ; preds = %9
  %23 = getelementptr inbounds [300 x i32], [300 x i32]* %2, i64 0, i64 0
  store i32* %23, i32** %7, align 8
  store i32 0, i32* %5, align 4
  br label %24

24:                                               ; preds = %49, %22
  %25 = load i32*, i32** %7, align 8
  %26 = getelementptr inbounds [300 x i32], [300 x i32]* %2, i64 0, i64 0
  %27 = load i32, i32* %4, align 4
  %28 = sext i32 %27 to i64
  %29 = getelementptr inbounds i32, i32* %26, i64 %28
  %30 = icmp ult i32* %25, %29
  br i1 %30, label %31, label %52

31:                                               ; preds = %24
  %32 = getelementptr inbounds [300 x i32], [300 x i32]* %3, i64 0, i64 0
  %33 = load i32, i32* %5, align 4
  %34 = load i32*, i32** %7, align 8
  %35 = load i32, i32* %34, align 4
  %36 = call i32 @isin(i32* %32, i32 %33, i32 %35)
  %37 = icmp eq i32 %36, 0
  %38 = zext i1 %37 to i32
  store i32 %38, i32* %6, align 4
  br i1 %37, label %39, label %48

39:                                               ; preds = %31
  %40 = load i32*, i32** %7, align 8
  %41 = load i32, i32* %40, align 4
  %42 = getelementptr inbounds [300 x i32], [300 x i32]* %3, i64 0, i64 0
  %43 = load i32, i32* %5, align 4
  %44 = sext i32 %43 to i64
  %45 = getelementptr inbounds i32, i32* %42, i64 %44
  store i32 %41, i32* %45, align 4
  %46 = load i32, i32* %5, align 4
  %47 = add nsw i32 %46, 1
  store i32 %47, i32* %5, align 4
  br label %48

48:                                               ; preds = %39, %31
  br label %49

49:                                               ; preds = %48
  %50 = load i32*, i32** %7, align 8
  %51 = getelementptr inbounds i32, i32* %50, i32 1
  store i32* %51, i32** %7, align 8
  br label %24

52:                                               ; preds = %24
  %53 = getelementptr inbounds [300 x i32], [300 x i32]* %3, i64 0, i64 0
  store i32* %53, i32** %7, align 8
  br label %54

54:                                               ; preds = %74, %52
  %55 = load i32*, i32** %7, align 8
  %56 = getelementptr inbounds [300 x i32], [300 x i32]* %3, i64 0, i64 0
  %57 = load i32, i32* %5, align 4
  %58 = sext i32 %57 to i64
  %59 = getelementptr inbounds i32, i32* %56, i64 %58
  %60 = icmp ult i32* %55, %59
  br i1 %60, label %61, label %77

61:                                               ; preds = %54
  %62 = load i32*, i32** %7, align 8
  %63 = load i32, i32* %62, align 4
  %64 = load i32*, i32** %7, align 8
  %65 = getelementptr inbounds [300 x i32], [300 x i32]* %3, i64 0, i64 0
  %66 = load i32, i32* %5, align 4
  %67 = sext i32 %66 to i64
  %68 = getelementptr inbounds i32, i32* %65, i64 %67
  %69 = getelementptr inbounds i32, i32* %68, i64 -1
  %70 = icmp eq i32* %64, %69
  %71 = zext i1 %70 to i64
  %72 = select i1 %70, i8* getelementptr inbounds ([2 x i8], [2 x i8]* @.str.2, i64 0, i64 0), i8* getelementptr inbounds ([2 x i8], [2 x i8]* @.str.3, i64 0, i64 0)
  %73 = call i32 (i8*, ...) @printf(i8* getelementptr inbounds ([5 x i8], [5 x i8]* @.str.1, i64 0, i64 0), i32 %63, i8* %72)
  br label %74

74:                                               ; preds = %61
  %75 = load i32*, i32** %7, align 8
  %76 = getelementptr inbounds i32, i32* %75, i32 1
  store i32* %76, i32** %7, align 8
  br label %54

77:                                               ; preds = %54
  ret void
}

declare dso_local i32 @__isoc99_scanf(i8*, ...) #1

declare dso_local i32 @printf(i8*, ...) #1


!llvm.module.flags = !{!0}
!llvm.ident = !{!1}

!0 = !{i32 1, !"wchar_size", i32 4}
!1 = !{!"clang version 10.0.0-4ubuntu1 "}
